target datalayout = "e-m:e-p270:32:32-p271:32:32-p272:64:64-i64:64-i128:128-f80:128-n8:16:32:64-S128"
target triple = "x86_64-pc-linux-gnu"

%struct.AVChannelLayout = type { i32, i32, %union.anon.0, ptr }
%union.anon.0 = type { i64 }
%struct.AVCodecContext = type { ptr, i32, i32, ptr, i32, i32, ptr, ptr, ptr, i64, i32, i32, ptr, i32, %struct.AVRational, %struct.AVRational, %struct.AVRational, i32, i32, i32, i32, i32, %struct.AVRational, i32, i32, i32, i32, i32, i32, i32, i32, i32, i32, i32, ptr, ptr, i32, float, float, float, float, float, float, float, float, float, i32, i32, i32, i32, i32, i32, i32, i32, i32, i32, i32, i32, ptr, ptr, ptr, i32, i32, i32, i32, i32, i32, i32, i32, i32, i32, %struct.AVChannelLayout, i32, i32, i32, i32, i32, i32, i32, i32, ptr, i32, i32, i32, float, float, i32, i32, i32, i32, i32, ptr, i64, i64, float, float, i32, i32, ptr, ptr, i32, i32, i32, i32, i32, ptr, ptr, ptr, ptr, i32, i32, [8 x i64], i32, i32, i32, i32, i32, i32, i32, ptr, ptr, i32, i32, i32, i32, i32, i32, i32, i32, i32, i32, ptr, ptr, i32, i32, ptr, ptr, ptr, ptr, i32, i32, i64, i32, i32, i64, ptr, i64, ptr, i32, ptr, i32 }
%struct.AVRational = type { i32, i32 }
%struct.RA144Context = type { ptr, %struct.AudioDSPContext, %struct.LPCContext, %struct.AudioFrameQueue, i32, i32, [2 x [10 x i32]], [2 x ptr], [2 x i32], [160 x i16], [50 x i16], [148 x i16], [4 x i8], [48 x i16] }
%struct.AudioDSPContext = type { ptr, ptr, ptr }
%struct.LPCContext = type { i32, i32, i32, ptr, ptr, ptr, ptr, [2 x %struct.LLSModel] }
%struct.LLSModel = type { [36 x [36 x double]], [32 x [32 x double]], [32 x double], i32, ptr, ptr, [8 x i8] }
%struct.AudioFrameQueue = type { ptr, i32, i32, ptr, i32, i32 }

; Function Attrs: cold nounwind optsize uwtable
define internal i32 @ra144_decode_init(ptr noundef %0) #0 {
  %2 = alloca ptr, align 8
  %3 = alloca ptr, align 8
  %4 = alloca %struct.AVChannelLayout, align 8
  store ptr %0, ptr %2, align 8, !tbaa !4
  call void @llvm.lifetime.start.p0(i64 8, ptr %3) #7
  %5 = load ptr, ptr %2, align 8, !tbaa !4
  %6 = getelementptr inbounds nuw %struct.AVCodecContext, ptr %5, i32 0, i32 6
  %7 = load ptr, ptr %6, align 8, !tbaa !9
  store ptr %7, ptr %3, align 8, !tbaa !29
  %8 = load ptr, ptr %2, align 8, !tbaa !4
  %9 = load ptr, ptr %3, align 8, !tbaa !29
  %10 = getelementptr inbounds nuw %struct.RA144Context, ptr %9, i32 0, i32 0
  store ptr %8, ptr %10, align 16, !tbaa !31
  %11 = load ptr, ptr %3, align 8, !tbaa !29
  %12 = getelementptr inbounds nuw %struct.RA144Context, ptr %11, i32 0, i32 1
  call void @ff_audiodsp_init(ptr noundef %12)
  %13 = load ptr, ptr %3, align 8, !tbaa !29
  %14 = getelementptr inbounds nuw %struct.RA144Context, ptr %13, i32 0, i32 6
  %15 = getelementptr inbounds [2 x [10 x i32]], ptr %14, i64 0, i64 0
  %16 = getelementptr inbounds [10 x i32], ptr %15, i64 0, i64 0
  %17 = load ptr, ptr %3, align 8, !tbaa !29
  %18 = getelementptr inbounds nuw %struct.RA144Context, ptr %17, i32 0, i32 7
  %19 = getelementptr inbounds [2 x ptr], ptr %18, i64 0, i64 0
  store ptr %16, ptr %19, align 8, !tbaa !38
  %20 = load ptr, ptr %3, align 8, !tbaa !29
  %21 = getelementptr inbounds nuw %struct.RA144Context, ptr %20, i32 0, i32 6
  %22 = getelementptr inbounds [2 x [10 x i32]], ptr %21, i64 0, i64 1
  %23 = getelementptr inbounds [10 x i32], ptr %22, i64 0, i64 0
  %24 = load ptr, ptr %3, align 8, !tbaa !29
  %25 = getelementptr inbounds nuw %struct.RA144Context, ptr %24, i32 0, i32 7
  %26 = getelementptr inbounds [2 x ptr], ptr %25, i64 0, i64 1
  store ptr %23, ptr %26, align 8, !tbaa !38
  %27 = load ptr, ptr %2, align 8, !tbaa !4
  %28 = getelementptr inbounds nuw %struct.AVCodecContext, ptr %27, i32 0, i32 71
  call void @av_channel_layout_uninit(ptr noundef %28)
  %29 = load ptr, ptr %2, align 8, !tbaa !4
  %30 = getelementptr inbounds nuw %struct.AVCodecContext, ptr %29, i32 0, i32 71
  %31 = getelementptr inbounds nuw %struct.AVChannelLayout, ptr %4, i32 0, i32 0
  store i32 1, ptr %31, align 8, !tbaa !39
  %32 = getelementptr inbounds nuw %struct.AVChannelLayout, ptr %4, i32 0, i32 1
  store i32 1, ptr %32, align 4, !tbaa !40
  %33 = getelementptr inbounds nuw %struct.AVChannelLayout, ptr %4, i32 0, i32 2
  store i64 4, ptr %33, align 8, !tbaa !41
  %34 = getelementptr inbounds nuw %struct.AVChannelLayout, ptr %4, i32 0, i32 3
  store ptr null, ptr %34, align 8, !tbaa !42
  call void @llvm.memcpy.p0.p0.i64(ptr align 8 %30, ptr align 8 %4, i64 24, i1 false), !tbaa.struct !43
  %35 = load ptr, ptr %2, align 8, !tbaa !4
  %36 = getelementptr inbounds nuw %struct.AVCodecContext, ptr %35, i32 0, i32 70
  store i32 1, ptr %36, align 4, !tbaa !46
  call void @llvm.lifetime.end.p0(i64 8, ptr %3) #7
  ret i32 0
}