; Function Attrs: cold nounwind optsize uwtable
define internal noundef i32 @ra144_decode_init(ptr noundef %0) #0 {
  %2 = getelementptr inbounds nuw i8, ptr %0, i64 32
  %3 = load ptr, ptr %2, align 8, !tbaa !4
  store ptr %0, ptr %3, align 16, !tbaa !27
  %4 = getelementptr inbounds nuw i8, ptr %3, i64 8
  tail call void @ff_audiodsp_init(ptr noundef nonnull %4) #5
  %5 = getelementptr inbounds nuw i8, ptr %3, i64 37816
  %6 = getelementptr inbounds nuw i8, ptr %3, i64 37896
  store ptr %5, ptr %6, align 8, !tbaa !35
  %7 = getelementptr inbounds nuw i8, ptr %3, i64 37856
  %8 = getelementptr inbounds nuw i8, ptr %3, i64 37904
  store ptr %7, ptr %8, align 8, !tbaa !35
  %9 = getelementptr inbounds nuw i8, ptr %0, i64 352
  tail call void @av_channel_layout_uninit(ptr noundef nonnull %9) #5
  store i32 1, ptr %9, align 8, !tbaa !36
  %.sroa.2.0..sroa_idx = getelementptr inbounds nuw i8, ptr %0, i64 356
  store i32 1, ptr %.sroa.2.0..sroa_idx, align 4, !tbaa !36
  %.sroa.3.0..sroa_idx = getelementptr inbounds nuw i8, ptr %0, i64 360
  store i64 4, ptr %.sroa.3.0..sroa_idx, align 8, !tbaa !37
  %.sroa.4.0..sroa_idx = getelementptr inbounds nuw i8, ptr %0, i64 368
  store ptr null, ptr %.sroa.4.0..sroa_idx, align 8, !tbaa !38
  %10 = getelementptr inbounds nuw i8, ptr %0, i64 348
  store i32 1, ptr %10, align 4, !tbaa !39
  ret i32 0
}